target datalayout = "e-m:e-p270:32:32-p271:32:32-p272:64:64-i64:64-i128:128-f80:128-n8:16:32:64-S128"
target triple = "x86_64-pc-linux-gnu"

%struct.expert_field = type { i32, i32 }

@hf_drda_param_length = internal global i32 0, align 4
@hf_drda_rdbnam = internal global i32 0, align 4
@hf_drda_rdbnam_ebcdic = internal global i32 0, align 4
@hf_drda_rdbcolid = internal global i32 0, align 4
@hf_drda_rdbcolid_ebcdic = internal global i32 0, align 4
@hf_drda_pkgid = internal global i32 0, align 4
@hf_drda_pkgid_ebcdic = internal global i32 0, align 4
@ei_drda_opcode_invalid_length = internal global %struct.expert_field zeroinitializer, align 4
@.str.999 = private unnamed_addr constant [58 x i8] c"Invalid length detected (%u): should be 18-255 bytes long\00", align 1
@.str.1000 = private unnamed_addr constant [79 x i8] c"Invalid length; RDBNAM, RDBCOLID, and PKGID should all be length 18 or larger.\00", align 1

; Function Attrs: null_pointer_is_valid sspstrong uwtable
define internal i32 @dissect_drda_pkgnam(ptr noundef %0, ptr noundef %1, ptr noundef %2, ptr noundef %3) #0 {
  %5 = alloca ptr, align 8
  %6 = alloca ptr, align 8
  %7 = alloca ptr, align 8
  %8 = alloca ptr, align 8
  %9 = alloca ptr, align 8
  %10 = alloca i32, align 4
  %11 = alloca i32, align 4
  store ptr %0, ptr %5, align 8
  store ptr %1, ptr %6, align 8
  store ptr %2, ptr %7, align 8
  store ptr %3, ptr %8, align 8
  call void @llvm.lifetime.start.p0(i64 8, ptr %9) #9
  call void @llvm.lifetime.start.p0(i64 4, ptr %10) #9
  store i32 0, ptr %10, align 4
  call void @llvm.lifetime.start.p0(i64 4, ptr %11) #9
  %12 = load ptr, ptr %5, align 8
  %13 = call i32 @tvb_reported_length(ptr noundef %12)
  %14 = icmp eq i32 %13, 54
  br i1 %14, label %15, label %52

15:                                               ; preds = %4
  %16 = load ptr, ptr %7, align 8
  %17 = load i32, ptr @hf_drda_rdbnam, align 4
  %18 = load ptr, ptr %5, align 8
  %19 = load i32, ptr %10, align 4
  %20 = call ptr @proto_tree_add_item(ptr noundef %16, i32 noundef %17, ptr noundef %18, i32 noundef %19, i32 noundef 18, i32 noundef 2)
  %21 = load ptr, ptr %7, align 8
  %22 = load i32, ptr @hf_drda_rdbnam_ebcdic, align 4
  %23 = load ptr, ptr %5, align 8
  %24 = load i32, ptr %10, align 4
  %25 = call ptr @proto_tree_add_item(ptr noundef %21, i32 noundef %22, ptr noundef %23, i32 noundef %24, i32 noundef 18, i32 noundef 96)
  %26 = load i32, ptr %10, align 4
  %27 = add i32 %26, 18
  store i32 %27, ptr %10, align 4
  %28 = load ptr, ptr %7, align 8
  %29 = load i32, ptr @hf_drda_rdbcolid, align 4
  %30 = load ptr, ptr %5, align 8
  %31 = load i32, ptr %10, align 4
  %32 = call ptr @proto_tree_add_item(ptr noundef %28, i32 noundef %29, ptr noundef %30, i32 noundef %31, i32 noundef 18, i32 noundef 2)
  %33 = load ptr, ptr %7, align 8
  %34 = load i32, ptr @hf_drda_rdbcolid_ebcdic, align 4
  %35 = load ptr, ptr %5, align 8
  %36 = load i32, ptr %10, align 4
  %37 = call ptr @proto_tree_add_item(ptr noundef %33, i32 noundef %34, ptr noundef %35, i32 noundef %36, i32 noundef 18, i32 noundef 96)
  %38 = load i32, ptr %10, align 4
  %39 = add i32 %38, 18
  store i32 %39, ptr %10, align 4
  %40 = load ptr, ptr %7, align 8
  %41 = load i32, ptr @hf_drda_pkgid, align 4
  %42 = load ptr, ptr %5, align 8
  %43 = load i32, ptr %10, align 4
  %44 = call ptr @proto_tree_add_item(ptr noundef %40, i32 noundef %41, ptr noundef %42, i32 noundef %43, i32 noundef 18, i32 noundef 2)
  %45 = load ptr, ptr %7, align 8
  %46 = load i32, ptr @hf_drda_pkgid_ebcdic, align 4
  %47 = load ptr, ptr %5, align 8
  %48 = load i32, ptr %10, align 4
  %49 = call ptr @proto_tree_add_item(ptr noundef %45, i32 noundef %46, ptr noundef %47, i32 noundef %48, i32 noundef 18, i32 noundef 96)
  %50 = load i32, ptr %10, align 4
  %51 = add i32 %50, 18
  store i32 %51, ptr %10, align 4
  br label %164

52:                                               ; preds = %4
  %53 = load ptr, ptr %5, align 8
  %54 = call i32 @tvb_reported_length(ptr noundef %53)
  %55 = icmp ugt i32 %54, 64
  br i1 %55, label %56, label %156

56:                                               ; preds = %52
  %57 = load ptr, ptr %7, align 8
  %58 = load i32, ptr @hf_drda_param_length, align 4
  %59 = load ptr, ptr %5, align 8
  %60 = load i32, ptr %10, align 4
  %61 = call ptr @proto_tree_add_item_ret_uint(ptr noundef %57, i32 noundef %58, ptr noundef %59, i32 noundef %60, i32 noundef 2, i32 noundef 0, ptr noundef %11)
  store ptr %61, ptr %9, align 8
  %62 = load i32, ptr %11, align 4
  %63 = icmp ult i32 %62, 18
  br i1 %63, label %67, label %64

64:                                               ; preds = %56
  %65 = load i32, ptr %11, align 4
  %66 = icmp ugt i32 %65, 255
  br i1 %66, label %67, label %72

67:                                               ; preds = %64, %56
  %68 = load ptr, ptr %6, align 8
  %69 = load ptr, ptr %9, align 8
  %70 = load i32, ptr %11, align 4
  %71 = call ptr (ptr, ptr, ptr, ptr, ...) @expert_add_info_format(ptr noundef %68, ptr noundef %69, ptr noundef @ei_drda_opcode_invalid_length, ptr noundef @.str.999, i32 noundef %70)
  br label %72

72:                                               ; preds = %67, %64
  %73 = load i32, ptr %10, align 4
  %74 = add i32 %73, 2
  store i32 %74, ptr %10, align 4
  %75 = load ptr, ptr %7, align 8
  %76 = load i32, ptr @hf_drda_rdbnam, align 4
  %77 = load ptr, ptr %5, align 8
  %78 = load i32, ptr %10, align 4
  %79 = load i32, ptr %11, align 4
  %80 = call ptr @proto_tree_add_item(ptr noundef %75, i32 noundef %76, ptr noundef %77, i32 noundef %78, i32 noundef %79, i32 noundef 2)
  %81 = load ptr, ptr %7, align 8
  %82 = load i32, ptr @hf_drda_rdbnam_ebcdic, align 4
  %83 = load ptr, ptr %5, align 8
  %84 = load i32, ptr %10, align 4
  %85 = load i32, ptr %11, align 4
  %86 = call ptr @proto_tree_add_item(ptr noundef %81, i32 noundef %82, ptr noundef %83, i32 noundef %84, i32 noundef %85, i32 noundef 96)
  %87 = load i32, ptr %11, align 4
  %88 = load i32, ptr %10, align 4
  %89 = add i32 %88, %87
  store i32 %89, ptr %10, align 4
  %90 = load ptr, ptr %7, align 8
  %91 = load i32, ptr @hf_drda_param_length, align 4
  %92 = load ptr, ptr %5, align 8
  %93 = load i32, ptr %10, align 4
  %94 = call ptr @proto_tree_add_item_ret_uint(ptr noundef %90, i32 noundef %91, ptr noundef %92, i32 noundef %93, i32 noundef 2, i32 noundef 0, ptr noundef %11)
  store ptr %94, ptr %9, align 8
  %95 = load i32, ptr %11, align 4
  %96 = icmp ult i32 %95, 18
  br i1 %96, label %100, label %97

97:                                               ; preds = %72
  %98 = load i32, ptr %11, align 4
  %99 = icmp ugt i32 %98, 255
  br i1 %99, label %100, label %105

100:                                              ; preds = %97, %72
  %101 = load ptr, ptr %6, align 8
  %102 = load ptr, ptr %9, align 8
  %103 = load i32, ptr %11, align 4
  %104 = call ptr (ptr, ptr, ptr, ptr, ...) @expert_add_info_format(ptr noundef %101, ptr noundef %102, ptr noundef @ei_drda_opcode_invalid_length, ptr noundef @.str.999, i32 noundef %103)
  br label %105

105:                                              ; preds = %100, %97
  %106 = load i32, ptr %10, align 4
  %107 = add i32 %106, 2
  store i32 %107, ptr %10, align 4
  %108 = load ptr, ptr %7, align 8
  %109 = load i32, ptr @hf_drda_rdbcolid, align 4
  %110 = load ptr, ptr %5, align 8
  %111 = load i32, ptr %10, align 4
  %112 = load i32, ptr %11, align 4
  %113 = call ptr @proto_tree_add_item(ptr noundef %108, i32 noundef %109, ptr noundef %110, i32 noundef %111, i32 noundef %112, i32 noundef 2)
  %114 = load ptr, ptr %7, align 8
  %115 = load i32, ptr @hf_drda_rdbcolid_ebcdic, align 4
  %116 = load ptr, ptr %5, align 8
  %117 = load i32, ptr %10, align 4
  %118 = load i32, ptr %11, align 4
  %119 = call ptr @proto_tree_add_item(ptr noundef %114, i32 noundef %115, ptr noundef %116, i32 noundef %117, i32 noundef %118, i32 noundef 96)
  %120 = load i32, ptr %11, align 4
  %121 = load i32, ptr %10, align 4
  %122 = add i32 %121, %120
  store i32 %122, ptr %10, align 4
  %123 = load ptr, ptr %7, align 8
  %124 = load i32, ptr @hf_drda_param_length, align 4
  %125 = load ptr, ptr %5, align 8
  %126 = load i32, ptr %10, align 4
  %127 = call ptr @proto_tree_add_item_ret_uint(ptr noundef %123, i32 noundef %124, ptr noundef %125, i32 noundef %126, i32 noundef 2, i32 noundef 0, ptr noundef %11)
  store ptr %127, ptr %9, align 8
  %128 = load i32, ptr %11, align 4
  %129 = icmp ult i32 %128, 18
  br i1 %129, label %133, label %130

130:                                              ; preds = %105
  %131 = load i32, ptr %11, align 4
  %132 = icmp ugt i32 %131, 255
  br i1 %132, label %133, label %138

133:                                              ; preds = %130, %105
  %134 = load ptr, ptr %6, align 8
  %135 = load ptr, ptr %9, align 8
  %136 = load i32, ptr %11, align 4
  %137 = call ptr (ptr, ptr, ptr, ptr, ...) @expert_add_info_format(ptr noundef %134, ptr noundef %135, ptr noundef @ei_drda_opcode_invalid_length, ptr noundef @.str.999, i32 noundef %136)
  br label %138

138:                                              ; preds = %133, %130
  %139 = load i32, ptr %10, align 4
  %140 = add i32 %139, 2
  store i32 %140, ptr %10, align 4
  %141 = load ptr, ptr %7, align 8
  %142 = load i32, ptr @hf_drda_pkgid, align 4
  %143 = load ptr, ptr %5, align 8
  %144 = load i32, ptr %10, align 4
  %145 = load i32, ptr %11, align 4
  %146 = call ptr @proto_tree_add_item(ptr noundef %141, i32 noundef %142, ptr noundef %143, i32 noundef %144, i32 noundef %145, i32 noundef 2)
  %147 = load ptr, ptr %7, align 8
  %148 = load i32, ptr @hf_drda_pkgid_ebcdic, align 4
  %149 = load ptr, ptr %5, align 8
  %150 = load i32, ptr %10, align 4
  %151 = load i32, ptr %11, align 4
  %152 = call ptr @proto_tree_add_item(ptr noundef %147, i32 noundef %148, ptr noundef %149, i32 noundef %150, i32 noundef %151, i32 noundef 96)
  %153 = load i32, ptr %11, align 4
  %154 = load i32, ptr %10, align 4
  %155 = add i32 %154, %153
  store i32 %155, ptr %10, align 4
  br label %163

156:                                              ; preds = %52
  %157 = load ptr, ptr %7, align 8
  %158 = load ptr, ptr %6, align 8
  %159 = load ptr, ptr %5, align 8
  %160 = load ptr, ptr %5, align 8
  %161 = call i32 @tvb_reported_length(ptr noundef %160)
  %162 = call ptr (ptr, ptr, ptr, ptr, i32, i32, ptr, ...) @proto_tree_add_expert_format(ptr noundef %157, ptr noundef %158, ptr noundef @ei_drda_opcode_invalid_length, ptr noundef %159, i32 noundef 0, i32 noundef %161, ptr noundef @.str.1000)
  br label %163

163:                                              ; preds = %156, %138
  br label %164

164:                                              ; preds = %163, %15
  %165 = load i32, ptr %10, align 4
  call void @llvm.lifetime.end.p0(i64 4, ptr %11) #9
  call void @llvm.lifetime.end.p0(i64 4, ptr %10) #9
  call void @llvm.lifetime.end.p0(i64 8, ptr %9) #9
  ret i32 %165
}