; Function Attrs: null_pointer_is_valid sspstrong uwtable
define internal i32 @dissect_drda_pkgnam(ptr noundef %0, ptr noundef %1, ptr noundef %2, ptr readnone captures(none) %3) #0 {
  %5 = alloca i32, align 4
  call void @llvm.lifetime.start.p0(i64 4, ptr nonnull %5) #8
  %6 = tail call i32 @tvb_reported_length(ptr noundef %0)
  %7 = icmp eq i32 %6, 54
  br i1 %7, label %8, label %21

8:                                                ; preds = %4
  %9 = load i32, ptr @hf_drda_rdbnam, align 4
  %10 = tail call ptr @proto_tree_add_item(ptr noundef %2, i32 noundef %9, ptr noundef %0, i32 noundef 0, i32 noundef 18, i32 noundef 2)
  %11 = load i32, ptr @hf_drda_rdbnam_ebcdic, align 4
  %12 = tail call ptr @proto_tree_add_item(ptr noundef %2, i32 noundef %11, ptr noundef %0, i32 noundef 0, i32 noundef 18, i32 noundef 96)
  %13 = load i32, ptr @hf_drda_rdbcolid, align 4
  %14 = tail call ptr @proto_tree_add_item(ptr noundef %2, i32 noundef %13, ptr noundef %0, i32 noundef 18, i32 noundef 18, i32 noundef 2)
  %15 = load i32, ptr @hf_drda_rdbcolid_ebcdic, align 4
  %16 = tail call ptr @proto_tree_add_item(ptr noundef %2, i32 noundef %15, ptr noundef %0, i32 noundef 18, i32 noundef 18, i32 noundef 96)
  %17 = load i32, ptr @hf_drda_pkgid, align 4
  %18 = tail call ptr @proto_tree_add_item(ptr noundef %2, i32 noundef %17, ptr noundef %0, i32 noundef 36, i32 noundef 18, i32 noundef 2)
  %19 = load i32, ptr @hf_drda_pkgid_ebcdic, align 4
  %20 = tail call ptr @proto_tree_add_item(ptr noundef %2, i32 noundef %19, ptr noundef %0, i32 noundef 36, i32 noundef 18, i32 noundef 96)
  br label %75

21:                                               ; preds = %4
  %22 = tail call i32 @tvb_reported_length(ptr noundef %0)
  %23 = icmp ugt i32 %22, 64
  br i1 %23, label %24, label %72

24:                                               ; preds = %21
  %25 = load i32, ptr @hf_drda_param_length, align 4
  %26 = call ptr @proto_tree_add_item_ret_uint(ptr noundef %2, i32 noundef %25, ptr noundef %0, i32 noundef 0, i32 noundef 2, i32 noundef 0, ptr noundef nonnull %5)
  %27 = load i32, ptr %5, align 4
  %28 = add i32 %27, -256
  %or.cond = icmp ult i32 %28, -238
  br i1 %or.cond, label %29, label %31

29:                                               ; preds = %24
  %30 = call ptr (ptr, ptr, ptr, ptr, ...) @expert_add_info_format(ptr noundef %1, ptr noundef %26, ptr noundef nonnull @ei_drda_opcode_invalid_length, ptr noundef nonnull @.str.999, i32 noundef %27)
  %.pre = load i32, ptr %5, align 4
  br label %31

31:                                               ; preds = %24, %29
  %32 = phi i32 [ %27, %24 ], [ %.pre, %29 ]
  %33 = load i32, ptr @hf_drda_rdbnam, align 4
  %34 = call ptr @proto_tree_add_item(ptr noundef %2, i32 noundef %33, ptr noundef %0, i32 noundef 2, i32 noundef %32, i32 noundef 2)
  %35 = load i32, ptr @hf_drda_rdbnam_ebcdic, align 4
  %36 = load i32, ptr %5, align 4
  %37 = call ptr @proto_tree_add_item(ptr noundef %2, i32 noundef %35, ptr noundef %0, i32 noundef 2, i32 noundef %36, i32 noundef 96)
  %38 = load i32, ptr %5, align 4
  %39 = add i32 %38, 2
  %40 = load i32, ptr @hf_drda_param_length, align 4
  %41 = call ptr @proto_tree_add_item_ret_uint(ptr noundef %2, i32 noundef %40, ptr noundef %0, i32 noundef %39, i32 noundef 2, i32 noundef 0, ptr noundef nonnull %5)
  %42 = load i32, ptr %5, align 4
  %43 = add i32 %42, -256
  %or.cond3 = icmp ult i32 %43, -238
  br i1 %or.cond3, label %44, label %46

44:                                               ; preds = %31
  %45 = call ptr (ptr, ptr, ptr, ptr, ...) @expert_add_info_format(ptr noundef %1, ptr noundef %41, ptr noundef nonnull @ei_drda_opcode_invalid_length, ptr noundef nonnull @.str.999, i32 noundef %42)
  %.pre71 = load i32, ptr %5, align 4
  br label %46

46:                                               ; preds = %31, %44
  %47 = phi i32 [ %42, %31 ], [ %.pre71, %44 ]
  %48 = add i32 %38, 4
  %49 = load i32, ptr @hf_drda_rdbcolid, align 4
  %50 = call ptr @proto_tree_add_item(ptr noundef %2, i32 noundef %49, ptr noundef %0, i32 noundef %48, i32 noundef %47, i32 noundef 2)
  %51 = load i32, ptr @hf_drda_rdbcolid_ebcdic, align 4
  %52 = load i32, ptr %5, align 4
  %53 = call ptr @proto_tree_add_item(ptr noundef %2, i32 noundef %51, ptr noundef %0, i32 noundef %48, i32 noundef %52, i32 noundef 96)
  %54 = load i32, ptr %5, align 4
  %55 = add i32 %54, %48
  %56 = load i32, ptr @hf_drda_param_length, align 4
  %57 = call ptr @proto_tree_add_item_ret_uint(ptr noundef %2, i32 noundef %56, ptr noundef %0, i32 noundef %55, i32 noundef 2, i32 noundef 0, ptr noundef nonnull %5)
  %58 = load i32, ptr %5, align 4
  %59 = add i32 %58, -256
  %or.cond5 = icmp ult i32 %59, -238
  br i1 %or.cond5, label %60, label %62

60:                                               ; preds = %46
  %61 = call ptr (ptr, ptr, ptr, ptr, ...) @expert_add_info_format(ptr noundef %1, ptr noundef %57, ptr noundef nonnull @ei_drda_opcode_invalid_length, ptr noundef nonnull @.str.999, i32 noundef %58)
  %.pre72 = load i32, ptr %5, align 4
  br label %62

62:                                               ; preds = %46, %60
  %63 = phi i32 [ %58, %46 ], [ %.pre72, %60 ]
  %64 = add i32 %55, 2
  %65 = load i32, ptr @hf_drda_pkgid, align 4
  %66 = call ptr @proto_tree_add_item(ptr noundef %2, i32 noundef %65, ptr noundef %0, i32 noundef %64, i32 noundef %63, i32 noundef 2)
  %67 = load i32, ptr @hf_drda_pkgid_ebcdic, align 4
  %68 = load i32, ptr %5, align 4
  %69 = call ptr @proto_tree_add_item(ptr noundef %2, i32 noundef %67, ptr noundef %0, i32 noundef %64, i32 noundef %68, i32 noundef 96)
  %70 = load i32, ptr %5, align 4
  %71 = add i32 %70, %64
  br label %75

72:                                               ; preds = %21
  %73 = tail call i32 @tvb_reported_length(ptr noundef %0)
  %74 = tail call ptr (ptr, ptr, ptr, ptr, i32, i32, ptr, ...) @proto_tree_add_expert_format(ptr noundef %2, ptr noundef %1, ptr noundef nonnull @ei_drda_opcode_invalid_length, ptr noundef %0, i32 noundef 0, i32 noundef %73, ptr noundef nonnull @.str.1000)
  br label %75

75:                                               ; preds = %62, %72, %8
  %.0 = phi i32 [ 54, %8 ], [ %71, %62 ], [ 0, %72 ]
  call void @llvm.lifetime.end.p0(i64 4, ptr nonnull %5) #8
  ret i32 %.0
}